target datalayout = "e-m:e-p270:32:32-p271:32:32-p272:64:64-i64:64-i128:128-f80:128-n8:16:32:64-S128"
target triple = "x86_64-pc-linux-gnu"

%"class.llvm::StringRef" = type { ptr, i64 }
%"struct.clang::TransferrableTargetInfo.base" = type <{ i8, i8, i8, i8, i8, i8, i8, i8, i8, i8, i8, i8, i8, i8, i8, i8, i8, i8, i8, i8, i8, i8, i8, i8, i8, [3 x i8], %"class.std::optional", i8, i8, i8, i8, i8, i8, i8, i8, i8, i8, i8, i8, i8, i8, i8, i8, i8, i8, i16, i16, [2 x i8], i32, i32, [4 x i8], ptr, ptr, ptr, ptr, ptr, ptr, ptr, i32, i32, i32, i32, i32, i32, i32, i32, i32, i32, i32, i32, i8, [3 x i8], i32, i32 }>
%"class.llvm::RefCountedBase" = type { i32 }
%"class.std::shared_ptr" = type { %"class.std::__shared_ptr" }
%"class.std::__shared_ptr" = type { ptr, %"class.std::__shared_count" }
%"class.std::__shared_count" = type { ptr }
%"class.llvm::Triple" = type { %"class.std::__cxx11::basic_string", i32, i32, i32, i32, i32, i32 }
%"class.clang::TargetCXXABI" = type { i32 }
%"class.llvm::VersionTuple" = type { i64, i64 }
%"class.std::optional" = type { %"struct.std::_Optional_base" }
%"struct.std::_Optional_base" = type { %"struct.std::_Optional_payload" }
%"struct.std::_Optional_payload" = type { %"struct.std::_Optional_payload_base.base", [3 x i8] }
%"struct.std::_Optional_payload_base.base" = type <{ %"union.std::_Optional_payload_base<unsigned int>::_Storage", i8 }>
%"union.std::_Optional_payload_base<unsigned int>::_Storage" = type { i32 }
%"class.std::optional.0" = type { %"struct.std::_Optional_base.1" }
%"struct.std::_Optional_base.1" = type { %"struct.std::_Optional_payload.3" }
%"struct.std::_Optional_payload.3" = type { %"struct.std::_Optional_payload.base.7", [7 x i8] }
%"struct.std::_Optional_payload.base.7" = type { %"struct.std::_Optional_payload_base.base.6" }
%"struct.std::_Optional_payload_base.base.6" = type <{ %"union.std::_Optional_payload_base<llvm::Triple>::_Storage", i8 }>
%"union.std::_Optional_payload_base<llvm::Triple>::_Storage" = type { %"class.llvm::Triple" }
%"class.llvm::StringSet" = type { %"class.llvm::StringMap" }
%"class.llvm::StringMap" = type { %"class.llvm::StringMapImpl" }
%"class.llvm::StringMapImpl" = type { ptr, i32, i32, i32, i32 }
%"class.std::__cxx11::basic_string" = type { %"struct.std::__cxx11::basic_string<char>::_Alloc_hider", i64, %union.anon }
%"struct.std::__cxx11::basic_string<char>::_Alloc_hider" = type { ptr }
%union.anon = type { i64, [8 x i8] }
%"struct.clang::TransferrableTargetInfo" = type <{ i8, i8, i8, i8, i8, i8, i8, i8, i8, i8, i8, i8, i8, i8, i8, i8, i8, i8, i8, i8, i8, i8, i8, i8, i8, [3 x i8], %"class.std::optional", i8, i8, i8, i8, i8, i8, i8, i8, i8, i8, i8, i8, i8, i8, i8, i8, i8, i8, i16, i16, [2 x i8], i32, i32, [4 x i8], ptr, ptr, ptr, ptr, ptr, ptr, ptr, i32, i32, i32, i32, i32, i32, i32, i32, i32, i32, i32, i32, i8, [3 x i8], i32, i32, [4 x i8] }>
%"class.clang::TargetInfo" = type <{ ptr, %"struct.clang::TransferrableTargetInfo.base", %"class.llvm::RefCountedBase", %"class.std::shared_ptr", %"class.llvm::Triple", i8, i8, i8, i8, i8, i8, i8, i8, i8, i8, i8, i8, i8, i8, i8, i8, %"class.std::__cxx11::basic_string", ptr, ptr, i8, i8, [2 x i8], %"class.clang::TargetCXXABI", ptr, %"class.llvm::StringRef", %"class.llvm::VersionTuple", i32, i32, %"class.std::optional", %"class.std::optional.0", %"class.llvm::StringSet", i8, [7 x i8] }>

@.str.4 = private unnamed_addr constant [1 x i8] zeroinitializer, align 1
@.str.7 = private unnamed_addr constant [52 x i8] c"e-m:e-p:32:32-Fi8-i64:64-v128:64:128-a:0:32-n32-S64\00", align 1

; Function Attrs: mustprogress nounwind uwtable
define linkonce_odr hidden noundef i64 @_ZNSt11char_traitsIcE6lengthEPKc(ptr noundef %0) #0 comdat align 2 {
  %2 = alloca ptr, align 8
  store ptr %0, ptr %2, align 8
  %3 = load ptr, ptr %2, align 8
  %4 = call i64 @strlen(ptr noundef %3) #12
  ret i64 %4
}

; Function Attrs: mustprogress nounwind uwtable
define linkonce_odr hidden void @_ZN4llvm9StringRefC2EPKc(ptr noundef nonnull align 8 dereferenceable(16) %0, ptr noundef %1) unnamed_addr #0 comdat align 2 {
  %3 = alloca ptr, align 8
  %4 = alloca ptr, align 8
  store ptr %0, ptr %3, align 8
  store ptr %1, ptr %4, align 8
  %5 = load ptr, ptr %3, align 8
  %6 = getelementptr inbounds nuw %"class.llvm::StringRef", ptr %5, i32 0, i32 0
  %7 = load ptr, ptr %4, align 8
  store ptr %7, ptr %6, align 8
  %8 = getelementptr inbounds nuw %"class.llvm::StringRef", ptr %5, i32 0, i32 1
  %9 = load ptr, ptr %4, align 8
  %10 = icmp ne ptr %9, null
  br i1 %10, label %11, label %14

11:                                               ; preds = %2
  %12 = load ptr, ptr %4, align 8
  %13 = call noundef i64 @_ZNSt11char_traitsIcE6lengthEPKc(ptr noundef %12)
  br label %15

14:                                               ; preds = %2
  br label %15

15:                                               ; preds = %14, %11
  %16 = phi i64 [ %13, %11 ], [ 0, %14 ]
  store i64 %16, ptr %8, align 8
  ret void
}

; Function Attrs: mustprogress nounwind uwtable
define hidden void @_ZN5clang7targets15ARMleTargetInfoC2ERKN4llvm6TripleERKNS_13TargetOptionsE(ptr noundef nonnull align 8 dereferenceable(624) %0, ptr noundef nonnull align 8 dereferenceable(56) %1, ptr noundef nonnull align 8 dereferenceable(536) %2) unnamed_addr #0 align 2 {
  %4 = alloca ptr, align 8
  %5 = alloca ptr, align 8
  %6 = alloca ptr, align 8
  store ptr %0, ptr %4, align 8
  store ptr %1, ptr %5, align 8
  store ptr %2, ptr %6, align 8
  %7 = load ptr, ptr %4, align 8
  %8 = load ptr, ptr %5, align 8
  %9 = load ptr, ptr %6, align 8
  call void @_ZN5clang7targets13ARMTargetInfoC2ERKN4llvm6TripleERKNS_13TargetOptionsE(ptr noundef nonnull align 8 dereferenceable(624) %7, ptr noundef nonnull align 8 dereferenceable(56) %8, ptr noundef nonnull align 8 dereferenceable(536) %9)
  store ptr getelementptr inbounds inrange(-16, 968) ({ [123 x ptr] }, ptr @_ZTVN5clang7targets15ARMleTargetInfoE, i32 0, i32 0, i32 2), ptr %7, align 8
  ret void
}

; Function Attrs: mustprogress nounwind uwtable
define hidden void @_ZN5clang7targets19CygwinARMTargetInfoC2ERKN4llvm6TripleERKNS_13TargetOptionsE(ptr noundef nonnull align 8 dereferenceable(624) %0, ptr noundef nonnull align 8 dereferenceable(56) %1, ptr noundef nonnull align 8 dereferenceable(536) %2) unnamed_addr #0 align 2 {
  %4 = alloca ptr, align 8
  %5 = alloca ptr, align 8
  %6 = alloca ptr, align 8
  %7 = alloca %"class.llvm::StringRef", align 8
  store ptr %0, ptr %4, align 8
  store ptr %1, ptr %5, align 8
  store ptr %2, ptr %6, align 8
  %8 = load ptr, ptr %4, align 8
  %9 = load ptr, ptr %5, align 8
  %10 = load ptr, ptr %6, align 8
  call void @_ZN5clang7targets15ARMleTargetInfoC2ERKN4llvm6TripleERKNS_13TargetOptionsE(ptr noundef nonnull align 8 dereferenceable(624) %8, ptr noundef nonnull align 8 dereferenceable(56) %9, ptr noundef nonnull align 8 dereferenceable(536) %10)
  store ptr getelementptr inbounds inrange(-16, 968) ({ [123 x ptr] }, ptr @_ZTVN5clang7targets19CygwinARMTargetInfoE, i32 0, i32 0, i32 2), ptr %8, align 8
  %11 = getelementptr inbounds i8, ptr %8, i64 8
  %12 = getelementptr inbounds nuw %"struct.clang::TransferrableTargetInfo", ptr %11, i32 0, i32 62
  store i32 4, ptr %12, align 8
  %13 = getelementptr inbounds nuw %"class.clang::TargetInfo", ptr %8, i32 0, i32 6
  store i8 0, ptr %13, align 1
  %14 = getelementptr inbounds i8, ptr %8, i64 8
  %15 = getelementptr inbounds nuw %"struct.clang::TransferrableTargetInfo", ptr %14, i32 0, i32 23
  store i8 64, ptr %15, align 1
  %16 = getelementptr inbounds i8, ptr %8, i64 8
  %17 = getelementptr inbounds nuw %"struct.clang::TransferrableTargetInfo", ptr %16, i32 0, i32 13
  store i8 64, ptr %17, align 1
  call void @_ZN4llvm9StringRefC2EPKc(ptr noundef nonnull align 8 dereferenceable(16) %7, ptr noundef @.str.7)
  %18 = getelementptr inbounds nuw { ptr, i64 }, ptr %7, i32 0, i32 0
  %19 = load ptr, ptr %18, align 8
  %20 = getelementptr inbounds nuw { ptr, i64 }, ptr %7, i32 0, i32 1
  %21 = load i64, ptr %20, align 8
  call void @_ZN5clang10TargetInfo15resetDataLayoutEN4llvm9StringRefEPKc(ptr noundef nonnull align 8 dereferenceable(489) %8, ptr %19, i64 %21, ptr noundef @.str.4)
  ret void
}