; Function Attrs: mustprogress nounwind uwtable
define hidden void @_ZN5clang7targets19CygwinARMTargetInfoC2ERKN4llvm6TripleERKNS_13TargetOptionsE(ptr noundef nonnull align 8 dereferenceable(624) %0, ptr noundef nonnull align 8 dereferenceable(56) %1, ptr nocapture noundef nonnull readonly align 8 dereferenceable(536) %2) unnamed_addr #0 align 2 {
  tail call void @_ZN5clang7targets13ARMTargetInfoC2ERKN4llvm6TripleERKNS_13TargetOptionsE(ptr noundef nonnull align 8 dereferenceable(624) %0, ptr noundef nonnull align 8 dereferenceable(56) %1, ptr noundef nonnull readonly align 8 dereferenceable(536) %2)
  store ptr getelementptr inbounds inrange(-16, 968) (i8, ptr @_ZTVN5clang7targets19CygwinARMTargetInfoE, i64 16), ptr %0, align 8
  %4 = getelementptr inbounds i8, ptr %0, i64 152
  store i32 4, ptr %4, align 8
  %5 = getelementptr inbounds nuw i8, ptr %0, i64 273
  store i8 0, ptr %5, align 1
  %6 = getelementptr inbounds i8, ptr %0, i64 31
  store i8 64, ptr %6, align 1
  %7 = getelementptr inbounds i8, ptr %0, i64 21
  store i8 64, ptr %7, align 1
  tail call void @_ZN5clang10TargetInfo15resetDataLayoutEN4llvm9StringRefEPKc(ptr noundef nonnull align 8 dereferenceable(489) %0, ptr nonnull @.str.7, i64 51, ptr noundef nonnull @.str.4) #24
  ret void
}